; Function Attrs: mustprogress uwtable
define hidden void @_ZN2cv15highgui_backend18createUIBackendGTKEv(ptr dead_on_unwind noalias writable writeonly sret(%"class.std::shared_ptr.12") align 8 captures(none) %0) local_unnamed_addr #3 personality ptr @__gxx_personality_v0 {
  %2 = load atomic i8, ptr @_ZGVZN2cv4implL11getInstanceEvE10g_instance acquire, align 8
  %3 = icmp eq i8 %2, 0
  br i1 %3, label %4, label %_ZN2cv4implL11getInstanceEv.exit, !prof !65

4:                                                ; preds = %1
  %5 = tail call i32 @__cxa_guard_acquire(ptr nonnull @_ZGVZN2cv4implL11getInstanceEvE10g_instance) #31
  %.not.i = icmp eq i32 %5, 0
  br i1 %.not.i, label %_ZN2cv4implL11getInstanceEv.exit, label %6

6:                                                ; preds = %4
  invoke void @_ZSt11make_sharedIN2cv4impl12GTKBackendUIEJEESt10shared_ptrINSt9enable_ifIXntsr8is_arrayIT_EE5valueES5_E4typeEEDpOT0_(ptr dead_on_unwind nonnull writable sret(%"class.std::shared_ptr.15") align 8 @_ZZN2cv4implL11getInstanceEvE10g_instance)
          to label %7 unwind label %9

7:                                                ; preds = %6
  %8 = tail call i32 @__cxa_atexit(ptr nonnull @_ZNSt12__shared_ptrIN2cv4impl12GTKBackendUIELN9__gnu_cxx12_Lock_policyE2EED2Ev, ptr nonnull @_ZZN2cv4implL11getInstanceEvE10g_instance, ptr nonnull @__dso_handle) #31
  tail call void @__cxa_guard_release(ptr nonnull @_ZGVZN2cv4implL11getInstanceEvE10g_instance) #31
  br label %_ZN2cv4implL11getInstanceEv.exit

9:                                                ; preds = %6
  %10 = landingpad { ptr, i32 }
          cleanup
  tail call void @__cxa_guard_abort(ptr nonnull @_ZGVZN2cv4implL11getInstanceEvE10g_instance) #31
  resume { ptr, i32 } %10

_ZN2cv4implL11getInstanceEv.exit:                 ; preds = %1, %4, %7
  %11 = load ptr, ptr @_ZZN2cv4implL11getInstanceEvE10g_instance, align 8, !tbaa !166
  store ptr %11, ptr %0, align 8, !tbaa !169
  %12 = getelementptr inbounds nuw i8, ptr %0, i64 8
  %13 = load ptr, ptr getelementptr inbounds nuw (i8, ptr @_ZZN2cv4implL11getInstanceEvE10g_instance, i64 8), align 8, !tbaa !53
  store ptr %13, ptr %12, align 8, !tbaa !53
  %.not.i.i.i = icmp eq ptr %13, null
  br i1 %.not.i.i.i, label %_ZNSt10shared_ptrIN2cv15highgui_backend9UIBackendEEC2INS0_4impl12GTKBackendUIEvEERKS_IT_E.exit, label %14

14:                                               ; preds = %_ZN2cv4implL11getInstanceEv.exit
  %15 = getelementptr inbounds nuw i8, ptr %13, i64 8
  %16 = load i8, ptr @__libc_single_threaded, align 1, !tbaa !59
  %.not.i.i.i.i = icmp eq i8 %16, 0
  br i1 %.not.i.i.i.i, label %20, label %17

17:                                               ; preds = %14
  %18 = load i32, ptr %15, align 4, !tbaa !36
  %19 = add nsw i32 %18, 1
  store i32 %19, ptr %15, align 4, !tbaa !36
  br label %_ZNSt10shared_ptrIN2cv15highgui_backend9UIBackendEEC2INS0_4impl12GTKBackendUIEvEERKS_IT_E.exit

20:                                               ; preds = %14
  %21 = atomicrmw volatile add ptr %15, i32 1 acq_rel, align 4
  br label %_ZNSt10shared_ptrIN2cv15highgui_backend9UIBackendEEC2INS0_4impl12GTKBackendUIEvEERKS_IT_E.exit

_ZNSt10shared_ptrIN2cv15highgui_backend9UIBackendEEC2INS0_4impl12GTKBackendUIEvEERKS_IT_E.exit: ; preds = %_ZN2cv4implL11getInstanceEv.exit, %17, %20
  ret void
}